target datalayout = "e-m:e-p270:32:32-p271:32:32-p272:64:64-i64:64-i128:128-f80:128-n8:16:32:64-S128"
target triple = "x86_64-pc-linux-gnu"

%struct.RangeBound = type { i64, i8, i8, i8 }
%struct.FunctionCallInfoBaseData = type { ptr, ptr, ptr, i32, i8, i16, [0 x %struct.NullableDatum] }
%struct.NullableDatum = type { i64, i8 }
%struct.FmgrInfo = type { ptr, i32, i16, i8, i8, i8, ptr, ptr, ptr }
%struct.TypeCacheEntry = type { i32, i32, i16, i8, i8, i8, i8, i32, i32, i32, i32, i32, i32, i32, i32, i32, i32, i32, i32, i32, i32, %struct.FmgrInfo, %struct.FmgrInfo, %struct.FmgrInfo, %struct.FmgrInfo, ptr, i64, ptr, i32, i32, %struct.FmgrInfo, %struct.FmgrInfo, %struct.FmgrInfo, ptr, i32, i32, ptr, i32, ptr, ptr }
%struct.RangeType = type { i32, i32 }
%struct.anon = type { i32, [0 x i8] }

@.str.1 = private unnamed_addr constant [13 x i8] c"rangetypes.c\00", align 1
@.str.8 = private unnamed_addr constant [47 x i8] c"could not identify a hash function for type %s\00", align 1
@__func__.hash_range_extended = private unnamed_addr constant [20 x i8] c"hash_range_extended\00", align 1
@.str.12 = private unnamed_addr constant [28 x i8] c"type %u is not a range type\00", align 1
@__func__.range_get_typcache = private unnamed_addr constant [19 x i8] c"range_get_typcache\00", align 1

; Function Attrs: inlinehint nounwind uwtable
define internal ptr @DatumGetPointer(i64 noundef %0) #2 {
  %2 = alloca i64, align 8
  store i64 %0, ptr %2, align 8
  %3 = load i64, ptr %2, align 8
  %4 = inttoptr i64 %3 to ptr
  ret ptr %4
}

; Function Attrs: inlinehint nounwind uwtable
define internal i64 @UInt64GetDatum(i64 noundef %0) #2 {
  %2 = alloca i64, align 8
  store i64 %0, ptr %2, align 8
  %3 = load i64, ptr %2, align 8
  ret i64 %3
}

; Function Attrs: inlinehint nounwind uwtable
define internal i64 @hash_uint32_extended(i32 noundef %0, i64 noundef %1) #2 {
  %3 = alloca i32, align 4
  %4 = alloca i64, align 8
  store i32 %0, ptr %3, align 4
  store i64 %1, ptr %4, align 8
  %5 = load i32, ptr %3, align 4
  %6 = load i64, ptr %4, align 8
  %7 = call i64 @hash_bytes_uint32_extended(i32 noundef %5, i64 noundef %6)
  %8 = call i64 @UInt64GetDatum(i64 noundef %7)
  ret i64 %8
}

; Function Attrs: inlinehint nounwind uwtable
define internal i64 @DatumGetInt64(i64 noundef %0) #2 {
  %2 = alloca i64, align 8
  store i64 %0, ptr %2, align 8
  %3 = load i64, ptr %2, align 8
  ret i64 %3
}

; Function Attrs: inlinehint nounwind uwtable
define internal i64 @DatumGetUInt64(i64 noundef %0) #2 {
  %2 = alloca i64, align 8
  store i64 %0, ptr %2, align 8
  %3 = load i64, ptr %2, align 8
  ret i64 %3
}

; Function Attrs: nounwind uwtable
define dso_local signext i8 @range_get_flags(ptr noundef %0) #0 {
  %2 = alloca ptr, align 8
  store ptr %0, ptr %2, align 8
  %3 = load ptr, ptr %2, align 8
  %4 = load ptr, ptr %2, align 8
  %5 = getelementptr inbounds nuw %struct.anon, ptr %4, i32 0, i32 0
  %6 = load i32, ptr %5, align 4
  %7 = lshr i32 %6, 2
  %8 = and i32 %7, 1073741823
  %9 = zext i32 %8 to i64
  %10 = getelementptr inbounds nuw i8, ptr %3, i64 %9
  %11 = getelementptr inbounds i8, ptr %10, i64 -1
  %12 = load i8, ptr %11, align 1
  ret i8 %12
}

; Function Attrs: nounwind uwtable
define dso_local ptr @range_get_typcache(ptr noundef %0, i32 noundef %1) #0 {
  %3 = alloca ptr, align 8
  %4 = alloca i32, align 4
  %5 = alloca ptr, align 8
  store ptr %0, ptr %3, align 8
  store i32 %1, ptr %4, align 4
  call void @llvm.lifetime.start.p0(i64 8, ptr %5) #10
  %6 = load ptr, ptr %3, align 8
  %7 = getelementptr inbounds nuw %struct.FunctionCallInfoBaseData, ptr %6, i32 0, i32 0
  %8 = load ptr, ptr %7, align 8
  %9 = getelementptr inbounds nuw %struct.FmgrInfo, ptr %8, i32 0, i32 6
  %10 = load ptr, ptr %9, align 8
  store ptr %10, ptr %5, align 8
  %11 = load ptr, ptr %5, align 8
  %12 = icmp eq ptr %11, null
  br i1 %12, label %19, label %13

13:                                               ; preds = %2
  %14 = load ptr, ptr %5, align 8
  %15 = getelementptr inbounds nuw %struct.TypeCacheEntry, ptr %14, i32 0, i32 0
  %16 = load i32, ptr %15, align 8
  %17 = load i32, ptr %4, align 4
  %18 = icmp ne i32 %16, %17
  br i1 %18, label %19, label %44

19:                                               ; preds = %13, %2
  %20 = load i32, ptr %4, align 4
  %21 = call ptr @lookup_type_cache(i32 noundef %20, i32 noundef 2048)
  store ptr %21, ptr %5, align 8
  %22 = load ptr, ptr %5, align 8
  %23 = getelementptr inbounds nuw %struct.TypeCacheEntry, ptr %22, i32 0, i32 27
  %24 = load ptr, ptr %23, align 8
  %25 = icmp eq ptr %24, null
  br i1 %25, label %26, label %38

26:                                               ; preds = %19
  br label %27

27:                                               ; preds = %26
  br i1 true, label %28, label %30

28:                                               ; preds = %27
  %29 = call zeroext i1 @errstart_cold(i32 noundef 21, ptr noundef null) #11
  br i1 %29, label %32, label %35

30:                                               ; preds = %27
  %31 = call zeroext i1 @errstart(i32 noundef 21, ptr noundef null)
  br i1 %31, label %32, label %35

32:                                               ; preds = %30, %28
  %33 = load i32, ptr %4, align 4
  %34 = call i32 (ptr, ...) @errmsg_internal(ptr noundef @.str.12, i32 noundef %33)
  call void @errfinish(ptr noundef @.str.1, i32 noundef 1712, ptr noundef @__func__.range_get_typcache)
  br label %35

35:                                               ; preds = %32, %30, %28
  unreachable

36:                                               ; No predecessors!
  br label %37

37:                                               ; preds = %36
  br label %38

38:                                               ; preds = %37, %19
  %39 = load ptr, ptr %5, align 8
  %40 = load ptr, ptr %3, align 8
  %41 = getelementptr inbounds nuw %struct.FunctionCallInfoBaseData, ptr %40, i32 0, i32 0
  %42 = load ptr, ptr %41, align 8
  %43 = getelementptr inbounds nuw %struct.FmgrInfo, ptr %42, i32 0, i32 6
  store ptr %39, ptr %43, align 8
  br label %44

44:                                               ; preds = %38, %13
  %45 = load ptr, ptr %5, align 8
  call void @llvm.lifetime.end.p0(i64 8, ptr %5) #10
  ret ptr %45
}

; Function Attrs: inlinehint nounwind uwtable
define internal ptr @DatumGetRangeTypeP(i64 noundef %0) #2 {
  %2 = alloca i64, align 8
  store i64 %0, ptr %2, align 8
  %3 = load i64, ptr %2, align 8
  %4 = call ptr @DatumGetPointer(i64 noundef %3)
  %5 = call ptr @pg_detoast_datum(ptr noundef %4)
  ret ptr %5
}

; Function Attrs: nounwind uwtable
define dso_local i64 @hash_range_extended(ptr noundef %0) #0 {
  %2 = alloca ptr, align 8
  %3 = alloca ptr, align 8
  %4 = alloca i64, align 8
  %5 = alloca i64, align 8
  %6 = alloca ptr, align 8
  %7 = alloca ptr, align 8
  %8 = alloca %struct.RangeBound, align 8
  %9 = alloca %struct.RangeBound, align 8
  %10 = alloca i8, align 1
  %11 = alloca i8, align 1
  %12 = alloca i64, align 8
  %13 = alloca i64, align 8
  store ptr %0, ptr %2, align 8
  call void @llvm.lifetime.start.p0(i64 8, ptr %3) #10
  %14 = load ptr, ptr %2, align 8
  %15 = getelementptr inbounds nuw %struct.FunctionCallInfoBaseData, ptr %14, i32 0, i32 6
  %16 = getelementptr inbounds [0 x %struct.NullableDatum], ptr %15, i64 0, i64 0
  %17 = getelementptr inbounds nuw %struct.NullableDatum, ptr %16, i32 0, i32 0
  %18 = load i64, ptr %17, align 8
  %19 = call ptr @DatumGetRangeTypeP(i64 noundef %18)
  store ptr %19, ptr %3, align 8
  call void @llvm.lifetime.start.p0(i64 8, ptr %4) #10
  %20 = load ptr, ptr %2, align 8
  %21 = getelementptr inbounds nuw %struct.FunctionCallInfoBaseData, ptr %20, i32 0, i32 6
  %22 = getelementptr inbounds [0 x %struct.NullableDatum], ptr %21, i64 0, i64 1
  %23 = getelementptr inbounds nuw %struct.NullableDatum, ptr %22, i32 0, i32 0
  %24 = load i64, ptr %23, align 8
  store i64 %24, ptr %4, align 8
  call void @llvm.lifetime.start.p0(i64 8, ptr %5) #10
  call void @llvm.lifetime.start.p0(i64 8, ptr %6) #10
  call void @llvm.lifetime.start.p0(i64 8, ptr %7) #10
  call void @llvm.lifetime.start.p0(i64 16, ptr %8) #10
  call void @llvm.lifetime.start.p0(i64 16, ptr %9) #10
  call void @llvm.lifetime.start.p0(i64 1, ptr %10) #10
  call void @llvm.lifetime.start.p0(i64 1, ptr %11) #10
  call void @llvm.lifetime.start.p0(i64 8, ptr %12) #10
  call void @llvm.lifetime.start.p0(i64 8, ptr %13) #10
  call void @check_stack_depth()
  %25 = load ptr, ptr %2, align 8
  %26 = load ptr, ptr %3, align 8
  %27 = getelementptr inbounds nuw %struct.RangeType, ptr %26, i32 0, i32 1
  %28 = load i32, ptr %27, align 4
  %29 = call ptr @range_get_typcache(ptr noundef %25, i32 noundef %28)
  store ptr %29, ptr %6, align 8
  %30 = load ptr, ptr %6, align 8
  %31 = load ptr, ptr %3, align 8
  call void @range_deserialize(ptr noundef %30, ptr noundef %31, ptr noundef %8, ptr noundef %9, ptr noundef %10)
  %32 = load ptr, ptr %3, align 8
  %33 = call signext i8 @range_get_flags(ptr noundef %32)
  store i8 %33, ptr %11, align 1
  %34 = load ptr, ptr %6, align 8
  %35 = getelementptr inbounds nuw %struct.TypeCacheEntry, ptr %34, i32 0, i32 27
  %36 = load ptr, ptr %35, align 8
  store ptr %36, ptr %7, align 8
  %37 = load ptr, ptr %7, align 8
  %38 = getelementptr inbounds nuw %struct.TypeCacheEntry, ptr %37, i32 0, i32 24
  %39 = getelementptr inbounds nuw %struct.FmgrInfo, ptr %38, i32 0, i32 1
  %40 = load i32, ptr %39, align 8
  %41 = icmp ne i32 %40, 0
  br i1 %41, label %69, label %42

42:                                               ; preds = %1
  %43 = load ptr, ptr %7, align 8
  %44 = getelementptr inbounds nuw %struct.TypeCacheEntry, ptr %43, i32 0, i32 0
  %45 = load i32, ptr %44, align 8
  %46 = call ptr @lookup_type_cache(i32 noundef %45, i32 noundef 32768)
  store ptr %46, ptr %7, align 8
  %47 = load ptr, ptr %7, align 8
  %48 = getelementptr inbounds nuw %struct.TypeCacheEntry, ptr %47, i32 0, i32 24
  %49 = getelementptr inbounds nuw %struct.FmgrInfo, ptr %48, i32 0, i32 1
  %50 = load i32, ptr %49, align 8
  %51 = icmp ne i32 %50, 0
  br i1 %51, label %68, label %52

52:                                               ; preds = %42
  br label %53

53:                                               ; preds = %52
  br i1 true, label %54, label %56

54:                                               ; preds = %53
  %55 = call zeroext i1 @errstart_cold(i32 noundef 21, ptr noundef null) #11
  br i1 %55, label %58, label %65

56:                                               ; preds = %53
  %57 = call zeroext i1 @errstart(i32 noundef 21, ptr noundef null)
  br i1 %57, label %58, label %65

58:                                               ; preds = %56, %54
  %59 = call i32 @errcode(i32 noundef 52461700)
  %60 = load ptr, ptr %7, align 8
  %61 = getelementptr inbounds nuw %struct.TypeCacheEntry, ptr %60, i32 0, i32 0
  %62 = load i32, ptr %61, align 8
  %63 = call ptr @format_type_be(i32 noundef %62)
  %64 = call i32 (ptr, ...) @errmsg(ptr noundef @.str.8, ptr noundef %63)
  call void @errfinish(ptr noundef @.str.1, i32 noundef 1426, ptr noundef @__func__.hash_range_extended)
  br label %65

65:                                               ; preds = %58, %56, %54
  unreachable

66:                                               ; No predecessors!
  br label %67

67:                                               ; preds = %66
  br label %68

68:                                               ; preds = %67, %42
  br label %69

69:                                               ; preds = %68, %1
  %70 = load i8, ptr %11, align 1
  %71 = sext i8 %70 to i32
  %72 = and i32 %71, 41
  %73 = icmp ne i32 %72, 0
  br i1 %73, label %85, label %74

74:                                               ; preds = %69
  %75 = load ptr, ptr %7, align 8
  %76 = getelementptr inbounds nuw %struct.TypeCacheEntry, ptr %75, i32 0, i32 24
  %77 = load ptr, ptr %6, align 8
  %78 = getelementptr inbounds nuw %struct.TypeCacheEntry, ptr %77, i32 0, i32 29
  %79 = load i32, ptr %78, align 4
  %80 = getelementptr inbounds nuw %struct.RangeBound, ptr %8, i32 0, i32 0
  %81 = load i64, ptr %80, align 8
  %82 = load i64, ptr %4, align 8
  %83 = call i64 @FunctionCall2Coll(ptr noundef %76, i32 noundef %79, i64 noundef %81, i64 noundef %82)
  %84 = call i64 @DatumGetUInt64(i64 noundef %83)
  store i64 %84, ptr %12, align 8
  br label %86

85:                                               ; preds = %69
  store i64 0, ptr %12, align 8
  br label %86

86:                                               ; preds = %85, %74
  %87 = load i8, ptr %11, align 1
  %88 = sext i8 %87 to i32
  %89 = and i32 %88, 81
  %90 = icmp ne i32 %89, 0
  br i1 %90, label %102, label %91

91:                                               ; preds = %86
  %92 = load ptr, ptr %7, align 8
  %93 = getelementptr inbounds nuw %struct.TypeCacheEntry, ptr %92, i32 0, i32 24
  %94 = load ptr, ptr %6, align 8
  %95 = getelementptr inbounds nuw %struct.TypeCacheEntry, ptr %94, i32 0, i32 29
  %96 = load i32, ptr %95, align 4
  %97 = getelementptr inbounds nuw %struct.RangeBound, ptr %9, i32 0, i32 0
  %98 = load i64, ptr %97, align 8
  %99 = load i64, ptr %4, align 8
  %100 = call i64 @FunctionCall2Coll(ptr noundef %93, i32 noundef %96, i64 noundef %98, i64 noundef %99)
  %101 = call i64 @DatumGetUInt64(i64 noundef %100)
  store i64 %101, ptr %13, align 8
  br label %103

102:                                              ; preds = %86
  store i64 0, ptr %13, align 8
  br label %103

103:                                              ; preds = %102, %91
  %104 = load i8, ptr %11, align 1
  %105 = sext i8 %104 to i32
  %106 = load i64, ptr %4, align 8
  %107 = call i64 @DatumGetInt64(i64 noundef %106)
  %108 = call i64 @hash_uint32_extended(i32 noundef %105, i64 noundef %107)
  %109 = call i64 @DatumGetUInt64(i64 noundef %108)
  store i64 %109, ptr %5, align 8
  %110 = load i64, ptr %12, align 8
  %111 = load i64, ptr %5, align 8
  %112 = xor i64 %111, %110
  store i64 %112, ptr %5, align 8
  %113 = load i64, ptr %5, align 8
  %114 = shl i64 %113, 1
  %115 = and i64 %114, -4294967298
  %116 = load i64, ptr %5, align 8
  %117 = lshr i64 %116, 31
  %118 = and i64 %117, 4294967297
  %119 = or i64 %115, %118
  store i64 %119, ptr %5, align 8
  %120 = load i64, ptr %13, align 8
  %121 = load i64, ptr %5, align 8
  %122 = xor i64 %121, %120
  store i64 %122, ptr %5, align 8
  %123 = load i64, ptr %5, align 8
  %124 = call i64 @UInt64GetDatum(i64 noundef %123)
  call void @llvm.lifetime.end.p0(i64 8, ptr %13) #10
  call void @llvm.lifetime.end.p0(i64 8, ptr %12) #10
  call void @llvm.lifetime.end.p0(i64 1, ptr %11) #10
  call void @llvm.lifetime.end.p0(i64 1, ptr %10) #10
  call void @llvm.lifetime.end.p0(i64 16, ptr %9) #10
  call void @llvm.lifetime.end.p0(i64 16, ptr %8) #10
  call void @llvm.lifetime.end.p0(i64 8, ptr %7) #10
  call void @llvm.lifetime.end.p0(i64 8, ptr %6) #10
  call void @llvm.lifetime.end.p0(i64 8, ptr %5) #10
  call void @llvm.lifetime.end.p0(i64 8, ptr %4) #10
  call void @llvm.lifetime.end.p0(i64 8, ptr %3) #10
  ret i64 %124
}