; Function Attrs: nounwind uwtable
define dso_local i64 @hash_range_extended(ptr noundef readonly captures(none) %0) local_unnamed_addr #0 {
  %2 = alloca %struct.RangeBound, align 8
  %3 = alloca %struct.RangeBound, align 8
  %4 = alloca i8, align 1
  %5 = getelementptr inbounds nuw i8, ptr %0, i64 32
  %6 = load i64, ptr %5, align 8
  %7 = inttoptr i64 %6 to ptr
  %8 = tail call ptr @pg_detoast_datum(ptr noundef %7) #14
  %9 = getelementptr inbounds nuw i8, ptr %0, i64 48
  %10 = load i64, ptr %9, align 8
  call void @llvm.lifetime.start.p0(i64 16, ptr nonnull %2) #14
  call void @llvm.lifetime.start.p0(i64 16, ptr nonnull %3) #14
  call void @llvm.lifetime.start.p0(i64 1, ptr nonnull %4) #14
  tail call void @check_stack_depth() #14
  %11 = getelementptr inbounds nuw i8, ptr %8, i64 4
  %12 = load i32, ptr %11, align 4
  %13 = load ptr, ptr %0, align 8
  %14 = getelementptr inbounds nuw i8, ptr %13, i64 24
  %15 = load ptr, ptr %14, align 8
  %16 = icmp eq ptr %15, null
  br i1 %16, label %19, label %17

17:                                               ; preds = %1
  %18 = load i32, ptr %15, align 8
  %.not.i = icmp eq i32 %18, %12
  br i1 %.not.i, label %range_get_typcache.exit, label %19

19:                                               ; preds = %17, %1
  %20 = tail call ptr @lookup_type_cache(i32 noundef %12, i32 noundef 2048) #14
  %21 = getelementptr inbounds nuw i8, ptr %20, i64 280
  %22 = load ptr, ptr %21, align 8
  %23 = icmp eq ptr %22, null
  br i1 %23, label %24, label %27

24:                                               ; preds = %19
  %25 = tail call zeroext i1 @errstart_cold(i32 noundef 21, ptr noundef null) #16
  tail call void @llvm.assume(i1 %25)
  %26 = tail call i32 (ptr, ...) @errmsg_internal(ptr noundef nonnull @.str.12, i32 noundef %12) #14
  tail call void @errfinish(ptr noundef nonnull @.str.1, i32 noundef 1712, ptr noundef nonnull @__func__.range_get_typcache) #14
  unreachable

27:                                               ; preds = %19
  %28 = load ptr, ptr %0, align 8
  %29 = getelementptr inbounds nuw i8, ptr %28, i64 24
  store ptr %20, ptr %29, align 8
  br label %range_get_typcache.exit

range_get_typcache.exit:                          ; preds = %17, %27
  %.0.i = phi ptr [ %20, %27 ], [ %15, %17 ]
  call void @range_deserialize(ptr noundef nonnull %.0.i, ptr noundef nonnull %8, ptr noundef nonnull %2, ptr noundef nonnull %3, ptr noundef nonnull %4)
  %30 = load i32, ptr %8, align 4
  %31 = lshr i32 %30, 2
  %32 = zext nneg i32 %31 to i64
  %33 = getelementptr inbounds nuw i8, ptr %8, i64 %32
  %34 = getelementptr inbounds i8, ptr %33, i64 -1
  %35 = load i8, ptr %34, align 1
  %36 = getelementptr inbounds nuw i8, ptr %.0.i, i64 280
  %37 = load ptr, ptr %36, align 8
  %38 = getelementptr inbounds nuw i8, ptr %37, i64 224
  %39 = load i32, ptr %38, align 8
  %.not = icmp eq i32 %39, 0
  br i1 %.not, label %40, label %51

40:                                               ; preds = %range_get_typcache.exit
  %41 = load i32, ptr %37, align 8
  %42 = tail call ptr @lookup_type_cache(i32 noundef %41, i32 noundef 32768) #14
  %43 = getelementptr inbounds nuw i8, ptr %42, i64 224
  %44 = load i32, ptr %43, align 8
  %.not30 = icmp eq i32 %44, 0
  br i1 %.not30, label %45, label %51

45:                                               ; preds = %40
  %46 = tail call zeroext i1 @errstart_cold(i32 noundef 21, ptr noundef null) #16
  tail call void @llvm.assume(i1 %46)
  %47 = tail call i32 @errcode(i32 noundef 52461700) #14
  %48 = load i32, ptr %42, align 8
  %49 = tail call ptr @format_type_be(i32 noundef %48) #14
  %50 = tail call i32 (ptr, ...) @errmsg(ptr noundef nonnull @.str.8, ptr noundef %49) #14
  tail call void @errfinish(ptr noundef nonnull @.str.1, i32 noundef 1426, ptr noundef nonnull @__func__.hash_range_extended) #14
  unreachable

51:                                               ; preds = %40, %range_get_typcache.exit
  %.029 = phi ptr [ %37, %range_get_typcache.exit ], [ %42, %40 ]
  %52 = and i8 %35, 41
  %.not31 = icmp eq i8 %52, 0
  br i1 %.not31, label %53, label %59

53:                                               ; preds = %51
  %54 = getelementptr inbounds nuw i8, ptr %.029, i64 216
  %55 = getelementptr inbounds nuw i8, ptr %.0.i, i64 292
  %56 = load i32, ptr %55, align 4
  %57 = load i64, ptr %2, align 8
  %58 = tail call i64 @FunctionCall2Coll(ptr noundef nonnull %54, i32 noundef %56, i64 noundef %57, i64 noundef %10) #14
  br label %59

59:                                               ; preds = %51, %53
  %.028 = phi i64 [ %58, %53 ], [ 0, %51 ]
  %60 = and i8 %35, 81
  %.not32 = icmp eq i8 %60, 0
  br i1 %.not32, label %61, label %67

61:                                               ; preds = %59
  %62 = getelementptr inbounds nuw i8, ptr %.029, i64 216
  %63 = getelementptr inbounds nuw i8, ptr %.0.i, i64 292
  %64 = load i32, ptr %63, align 4
  %65 = load i64, ptr %3, align 8
  %66 = tail call i64 @FunctionCall2Coll(ptr noundef nonnull %62, i32 noundef %64, i64 noundef %65, i64 noundef %10) #14
  br label %67

67:                                               ; preds = %59, %61
  %.0 = phi i64 [ %66, %61 ], [ 0, %59 ]
  %68 = sext i8 %35 to i32
  %69 = tail call i64 @hash_bytes_uint32_extended(i32 noundef range(i32 -128, 128) %68, i64 noundef %10) #14
  %70 = xor i64 %69, %.028
  %71 = shl i64 %70, 1
  %72 = and i64 %71, -4294967298
  %73 = lshr i64 %70, 31
  %74 = and i64 %73, 4294967297
  %75 = or disjoint i64 %72, %74
  %76 = xor i64 %75, %.0
  call void @llvm.lifetime.end.p0(i64 1, ptr nonnull %4) #14
  call void @llvm.lifetime.end.p0(i64 16, ptr nonnull %3) #14
  call void @llvm.lifetime.end.p0(i64 16, ptr nonnull %2) #14
  ret i64 %76
}